; Function Attrs: mustprogress nounwind uwtable
define hidden void @_ZNK14ZPageAllocator10restart_gcEv(ptr nocapture noundef nonnull readonly align 8 dereferenceable(609) %0) local_unnamed_addr #1 align 2 {
  %2 = alloca %class.ZDriverRequest, align 4
  %3 = alloca %class.ZDriverRequest, align 4
  %4 = getelementptr inbounds i8, ptr %0, i64 496
  %5 = getelementptr inbounds i8, ptr %0, i64 512
  %6 = load i64, ptr %5, align 8
  %7 = icmp eq i64 %6, 0
  %8 = load ptr, ptr %4, align 8
  %9 = ptrtoint ptr %8 to i64
  %10 = add i64 %9, -72
  %11 = icmp eq i64 %10, 0
  %12 = select i1 %7, i1 true, i1 %11
  br i1 %12, label %25, label %13

13:                                               ; preds = %1
  %14 = inttoptr i64 %10 to ptr
  %15 = getelementptr i8, ptr %14, i64 20
  %.val = load i32, ptr %15, align 4
  %16 = load ptr, ptr @_ZN11ZGeneration6_youngE, align 8
  %17 = getelementptr inbounds i8, ptr %16, i64 3220
  %18 = load i32, ptr %17, align 4
  %.not = icmp eq i32 %18, %.val
  %19 = load i32, ptr @ZYoungGCThreads, align 4
  br i1 %.not, label %20, label %22

20:                                               ; preds = %13
  call void @_ZN14ZDriverRequestC1EN7GCCause5CauseEjj(ptr noundef nonnull align 4 dereferenceable(12) %2, i32 noundef 31, i32 noundef %19, i32 noundef 0) #13
  %21 = call noundef ptr @_ZN7ZDriver5minorEv() #13
  call void @_ZN12ZDriverMinor7collectERK14ZDriverRequest(ptr noundef nonnull align 8 dereferenceable(1264) %21, ptr noundef nonnull align 4 dereferenceable(12) %2) #13
  br label %25

22:                                               ; preds = %13
  %23 = load i32, ptr @ZOldGCThreads, align 4
  call void @_ZN14ZDriverRequestC1EN7GCCause5CauseEjj(ptr noundef nonnull align 4 dereferenceable(12) %3, i32 noundef 31, i32 noundef %19, i32 noundef %23) #13
  %24 = call noundef ptr @_ZN7ZDriver5majorEv() #13
  call void @_ZN12ZDriverMajor7collectERK14ZDriverRequest(ptr noundef nonnull align 8 dereferenceable(1264) %24, ptr noundef nonnull align 4 dereferenceable(12) %3) #13
  br label %25

25:                                               ; preds = %1, %22, %20
  ret void
}